(dp1
S'files'
p2
(dp3
S'runner'
p4
(dp5
S'index'
p6
(dp7
S'html_filename'
p8
S'runner.html'
p9
sS'name'
p10
g4
sS'nums'
p11
ccopy_reg
_reconstructor
p12
(ccoverage.results
Numbers
p13
c__builtin__
object
p14
NtRp15
(dp16
S'n_files'
p17
I1
sS'n_branches'
p18
I0
sS'n_statements'
p19
I202
sS'n_excluded'
p20
I0
sS'n_partial_branches'
p21
I0
sS'n_missing'
p22
I51
sS'n_missing_branches'
p23
I0
sbssS'hash'
p24
S'Wk\xb7Nn\xef\xe8\xeb\x8d7\xc4\r\x11"i\x8e'
p25
ssS'_workspace_testDemo_cof_logger___init__'
p26
(dp27
g6
(dp28
g8
S'_workspace_testDemo_cof_logger___init__.html'
p29
sg10
S'D:\\workspace\\testDemo\\cof\\logger\\__init__'
p30
sg11
g12
(g13
g14
NtRp31
(dp32
g17
I1
sg18
I0
sg19
I1
sg20
I0
sg21
I0
sg22
I0
sg23
I0
sbssg24
S'\t\x12\x0c\xba\xc1Hq8U]e\xe8\xc6H\xc6\xf0'
p33
ssS'_workspace_testDemo_api_call_campaign_campaign'
p34
(dp35
g6
(dp36
g8
S'_workspace_testDemo_api_call_campaign_campaign.html'
p37
sg10
S'D:\\workspace\\testDemo\\api_call\\campaign\\campaign'
p38
sg11
g12
(g13
g14
NtRp39
(dp40
g17
I1
sg18
I0
sg19
I16
sg20
I0
sg21
I0
sg22
I3
sg23
I0
sbssg24
S'\xa9\x07\xe1\xb4^P\xd0\xbf\n\x9c\x8a`\x9cO\xc8y'
p41
ssS'_workspace_testDemo_HTMLTestRunner'
p42
(dp43
g6
(dp44
S'html_filename'
p45
S'_workspace_testDemo_HTMLTestRunner.html'
p46
sS'name'
p47
S'D:\\workspace\\testDemo\\HTMLTestRunner'
p48
sS'nums'
p49
g12
(g13
g14
NtRp50
(dp51
g17
I1
sg18
I0
sg19
I221
sg20
I0
sg21
I0
sg22
I46
sg23
I0
sbssg24
S'\xfc\xe8\x14\xdf_\xd8f(\xb4\xee0Cl\xbcc\xa8'
p52
ssS'_workspace_testDemo_testcases_campaign_tc_v01_test_campaign'
p53
(dp54
g6
(dp55
g45
S'_workspace_testDemo_testcases_campaign_tc_v01_test_campaign.html'
p56
sg47
S'D:\\workspace\\testDemo\\testcases\\campaign_tc\\v01\\test_campaign'
p57
sg49
g12
(g13
g14
NtRp58
(dp59
g17
I1
sg18
I0
sg19
I29
sg20
I0
sg21
I0
sg22
I0
sg23
I0
sbssg24
S'\xec\xd9\xca\x12\xf2\x18\xf2\x86\x0f\xb5\xaa\xb1\xedX\x87\xd5'
p60
ssS'_workspace_testDemo_cof___init__'
p61
(dp62
g6
(dp63
g8
S'_workspace_testDemo_cof___init__.html'
p64
sg10
S'D:\\workspace\\testDemo\\cof\\__init__'
p65
sg11
g12
(g13
g14
NtRp66
(dp67
g17
I1
sg18
I0
sg19
I6
sg20
I0
sg21
I0
sg22
I1
sg23
I0
sbssg24
S'"8\xf5\xd6\x0b\xba\x0f\xb3\x8d\x008\x90\xd8\x80\xdfu'
p68
ssS'_workspace_testDemo_base___init__'
p69
(dp70
g6
(dp71
g8
S'_workspace_testDemo_base___init__.html'
p72
sg10
S'D:\\workspace\\testDemo\\base\\__init__'
p73
sg11
g12
(g13
g14
NtRp74
(dp75
g17
I1
sg18
I0
sg19
I1
sg20
I0
sg21
I0
sg22
I0
sg23
I0
sbssg24
S'\t\x12\x0c\xba\xc1Hq8U]e\xe8\xc6H\xc6\xf0'
p76
ssS'_workspace_testDemo_api_call_campaign___init__'
p77
(dp78
g6
(dp79
g8
S'_workspace_testDemo_api_call_campaign___init__.html'
p80
sg10
S'D:\\workspace\\testDemo\\api_call\\campaign\\__init__'
p81
sg11
g12
(g13
g14
NtRp82
(dp83
g17
I1
sg18
I0
sg19
I1
sg20
I0
sg21
I0
sg22
I0
sg23
I0
sbssg24
S'\t\x12\x0c\xba\xc1Hq8U]e\xe8\xc6H\xc6\xf0'
p84
ssS'_workspace_testDemo_base_http'
p85
(dp86
g6
(dp87
g8
S'_workspace_testDemo_base_http.html'
p88
sg10
S'D:\\workspace\\testDemo\\base\\http'
p89
sg11
g12
(g13
g14
NtRp90
(dp91
g17
I1
sg18
I0
sg19
I18
sg20
I0
sg21
I0
sg22
I3
sg23
I0
sbssg24
S'0\xf4Elv\x98\xe1\xe0\xf97\xc8\x16\x8e\x91!\x04'
p92
ssS'_workspace_testDemo_cof_im'
p93
(dp94
g6
(dp95
g8
S'_workspace_testDemo_cof_im.html'
p96
sg10
S'D:\\workspace\\testDemo\\cof\\im'
p97
sg11
g12
(g13
g14
NtRp98
(dp99
g17
I1
sg18
I0
sg19
I70
sg20
I0
sg21
I0
sg22
I27
sg23
I0
sbssg24
S'P\xce\xbc\xb8O\xe8\x13e\x0e\x91\xdd\x8a\x08c\rg'
p100
ssS'_workspace_testDemo_cof_co_time'
p101
(dp102
g6
(dp103
g8
S'_workspace_testDemo_cof_co_time.html'
p104
sg10
S'D:\\workspace\\testDemo\\cof\\co_time'
p105
sg11
g12
(g13
g14
NtRp106
(dp107
g17
I1
sg18
I0
sg19
I77
sg20
I0
sg21
I0
sg22
I44
sg23
I0
sbssg24
S'\xcc`\xdfH\xbel\xf4\xb7\x08\x02\xa40v\x0csD'
p108
ssS'_workspace_testDemo_cof_conf'
p109
(dp110
g6
(dp111
g8
S'_workspace_testDemo_cof_conf.html'
p112
sg10
S'D:\\workspace\\testDemo\\cof\\conf'
p113
sg11
g12
(g13
g14
NtRp114
(dp115
g17
I1
sg18
I0
sg19
I47
sg20
I0
sg21
I0
sg22
I15
sg23
I0
sbssg24
S'\xcc\xd6\x05\r\xcb\xee\xca\xe3Y9\xd5\x9cS\x19\xf7\xd3'
p116
ssS'_workspace_testDemo_cof_coding_trans'
p117
(dp118
g6
(dp119
g8
S'_workspace_testDemo_cof_coding_trans.html'
p120
sg10
S'D:\\workspace\\testDemo\\cof\\coding_trans'
p121
sg11
g12
(g13
g14
NtRp122
(dp123
g17
I1
sg18
I0
sg19
I28
sg20
I0
sg21
I0
sg22
I21
sg23
I0
sbssg24
S'\t|\xc5\xef\x8b%\x86.\xa7/\xb9;@\x15/m'
p124
ssS'_workspace_testDemo_testcases_campaign_tc___init__'
p125
(dp126
g6
(dp127
g8
S'_workspace_testDemo_testcases_campaign_tc___init__.html'
p128
sg10
S'D:\\workspace\\testDemo\\testcases\\campaign_tc\\__init__'
p129
sg11
g12
(g13
g14
NtRp130
(dp131
g17
I1
sg18
I0
sg19
I1
sg20
I0
sg21
I0
sg22
I0
sg23
I0
sbssg24
S'\t\x12\x0c\xba\xc1Hq8U]e\xe8\xc6H\xc6\xf0'
p132
ssS'_workspace_testDemo_cof_logger_hyqa_logger'
p133
(dp134
g6
(dp135
g8
S'_workspace_testDemo_cof_logger_hyqa_logger.html'
p136
sg10
S'D:\\workspace\\testDemo\\cof\\logger\\hyqa_logger'
p137
sg11
g12
(g13
g14
NtRp138
(dp139
g17
I1
sg18
I0
sg19
I59
sg20
I0
sg21
I0
sg22
I47
sg23
I0
sbssg24
S'-\x8a\xdd\xaek\x01V\x96f{Q\xc1\x88\x0e\xd8<'
p140
ssS'_workspace_testDemo_testcases_campaign_tc_v01___init__'
p141
(dp142
g6
(dp143
g8
S'_workspace_testDemo_testcases_campaign_tc_v01___init__.html'
p144
sg10
S'D:\\workspace\\testDemo\\testcases\\campaign_tc\\v01\\__init__'
p145
sg11
g12
(g13
g14
NtRp146
(dp147
g17
I1
sg18
I0
sg19
I1
sg20
I0
sg21
I0
sg22
I0
sg23
I0
sbssg24
S'\t\x12\x0c\xba\xc1Hq8U]e\xe8\xc6H\xc6\xf0'
p148
ssS'_workspace_testDemo_lib_log'
p149
(dp150
g6
(dp151
g8
S'_workspace_testDemo_lib_log.html'
p152
sg10
S'D:\\workspace\\testDemo\\lib\\log'
p153
sg11
g12
(g13
g14
NtRp154
(dp155
g17
I1
sg18
I0
sg19
I31
sg20
I0
sg21
I0
sg22
I11
sg23
I0
sbssg24
S'T\xcf- \xf6\x1b\x9f\x04v;\xfbT<j6\xd9'
p156
ssS'_workspace_testDemo_lib___init__'
p157
(dp158
g6
(dp159
g8
S'_workspace_testDemo_lib___init__.html'
p160
sg10
S'D:\\workspace\\testDemo\\lib\\__init__'
p161
sg11
g12
(g13
g14
NtRp162
(dp163
g17
I1
sg18
I0
sg19
I1
sg20
I0
sg21
I0
sg22
I0
sg23
I0
sbssg24
S'\x1cQ-\xb2\xfc%\x98\x07Nx\x9c\xe6\xb5\x90\xf0.'
p164
ssS'_workspace_testDemo_cof_http'
p165
(dp166
g6
(dp167
g45
S'_workspace_testDemo_cof_http.html'
p168
sg47
S'D:\\workspace\\testDemo\\cof\\http'
p169
sg49
g12
(g13
g14
NtRp170
(dp171
g17
I1
sg18
I0
sg19
I279
sg20
I0
sg21
I0
sg22
I180
sg23
I0
sbssg24
S'"\x18\xff v\'\xb0\x1d7\xf4\x93\x9f\xd3\xd9\x95\x9f'
p172
ssS'_workspace_testDemo_api_call___init__'
p173
(dp174
g6
(dp175
g8
S'_workspace_testDemo_api_call___init__.html'
p176
sg10
S'D:\\workspace\\testDemo\\api_call\\__init__'
p177
sg11
g12
(g13
g14
NtRp178
(dp179
g17
I1
sg18
I0
sg19
I1
sg20
I0
sg21
I0
sg22
I0
sg23
I0
sbssg24
S'\t\x12\x0c\xba\xc1Hq8U]e\xe8\xc6H\xc6\xf0'
p180
ssS'_workspace_testDemo_cof_restful'
p181
(dp182
g6
(dp183
g8
S'_workspace_testDemo_cof_restful.html'
p184
sg10
S'D:\\workspace\\testDemo\\cof\\restful'
p185
sg11
g12
(g13
g14
NtRp186
(dp187
g17
I1
sg18
I0
sg19
I51
sg20
I0
sg21
I0
sg22
I32
sg23
I0
sbssg24
S')q\xe4\x19g\xe3\xdf+e0\x06G1\xa70^'
p188
ssS'_workspace_testDemo_cof_file'
p189
(dp190
g6
(dp191
g8
S'_workspace_testDemo_cof_file.html'
p192
sg10
S'D:\\workspace\\testDemo\\cof\\file'
p193
sg11
g12
(g13
g14
NtRp194
(dp195
g17
I1
sg18
I0
sg19
I73
sg20
I0
sg21
I0
sg22
I50
sg23
I0
sbssg24
S"M\xcc\x10\xb6'\xd1\xa8\x9f*e\xdb]Ur\xc54"
p196
sssS'settings'
p197
S"\xab\xd7\xa5\xde\x9a(\xd4\x17ysk'\xea\xa8\xde\xb7"
p198
sS'version'
p199
S'3.7.1'
p200
sS'format'
p201
I1
s.